target datalayout = "e-m:e-p270:32:32-p271:32:32-p272:64:64-i64:64-i128:128-f80:128-n8:16:32:64-S128"
target triple = "x86_64-pc-linux-gnu"

@.str = private unnamed_addr constant [125 x i8] c"generated/home/dtcxzyw/WorkSpace/Projects/compilers/llvm-opt-benchmark/bench/libquic/libquic/boringssl/crypto/rsa/rsa_impl.c\00", align 1

; Function Attrs: nounwind uwtable
define hidden i32 @rsa_default_sign_raw(ptr noundef %0, ptr noundef %1, ptr noundef %2, i64 noundef %3, ptr noundef %4, i64 noundef %5, i32 noundef %6) #0 {
  %8 = alloca i32, align 4
  %9 = alloca ptr, align 8
  %10 = alloca ptr, align 8
  %11 = alloca ptr, align 8
  %12 = alloca i64, align 8
  %13 = alloca ptr, align 8
  %14 = alloca i64, align 8
  %15 = alloca i32, align 4
  %16 = alloca i32, align 4
  %17 = alloca ptr, align 8
  %18 = alloca i32, align 4
  %19 = alloca i32, align 4
  %20 = alloca i32, align 4
  store ptr %0, ptr %9, align 8, !tbaa !6
  store ptr %1, ptr %10, align 8, !tbaa !22
  store ptr %2, ptr %11, align 8, !tbaa !24
  store i64 %3, ptr %12, align 8, !tbaa !25
  store ptr %4, ptr %13, align 8, !tbaa !24
  store i64 %5, ptr %14, align 8, !tbaa !25
  store i32 %6, ptr %15, align 4, !tbaa !27
  call void @llvm.lifetime.start.p0(i64 4, ptr %16) #7
  %21 = load ptr, ptr %9, align 8, !tbaa !6
  %22 = call i32 @RSA_size(ptr noundef %21)
  store i32 %22, ptr %16, align 4, !tbaa !27
  call void @llvm.lifetime.start.p0(i64 8, ptr %17) #7
  store ptr null, ptr %17, align 8, !tbaa !24
  call void @llvm.lifetime.start.p0(i64 4, ptr %18) #7
  call void @llvm.lifetime.start.p0(i64 4, ptr %19) #7
  store i32 0, ptr %19, align 4, !tbaa !27
  %23 = load i64, ptr %12, align 8, !tbaa !25
  %24 = load i32, ptr %16, align 4, !tbaa !27
  %25 = zext i32 %24 to i64
  %26 = icmp ult i64 %23, %25
  br i1 %26, label %27, label %28

27:                                               ; preds = %7
  call void @ERR_put_error(i32 noundef 4, i32 noundef 0, i32 noundef 135, ptr noundef @.str, i32 noundef 320)
  store i32 0, ptr %8, align 4
  store i32 1, ptr %20, align 4
  br label %79

28:                                               ; preds = %7
  %29 = load i32, ptr %16, align 4, !tbaa !27
  %30 = zext i32 %29 to i64
  %31 = call noalias ptr @malloc(i64 noundef %30) #8
  store ptr %31, ptr %17, align 8, !tbaa !24
  %32 = load ptr, ptr %17, align 8, !tbaa !24
  %33 = icmp eq ptr %32, null
  br i1 %33, label %34, label %35

34:                                               ; preds = %28
  call void @ERR_put_error(i32 noundef 4, i32 noundef 0, i32 noundef 65, ptr noundef @.str, i32 noundef 326)
  br label %69

35:                                               ; preds = %28
  %36 = load i32, ptr %15, align 4, !tbaa !27
  switch i32 %36, label %51 [
    i32 1, label %37
    i32 3, label %44
  ]

37:                                               ; preds = %35
  %38 = load ptr, ptr %17, align 8, !tbaa !24
  %39 = load i32, ptr %16, align 4, !tbaa !27
  %40 = load ptr, ptr %13, align 8, !tbaa !24
  %41 = load i64, ptr %14, align 8, !tbaa !25
  %42 = trunc i64 %41 to i32
  %43 = call i32 @RSA_padding_add_PKCS1_type_1(ptr noundef %38, i32 noundef %39, ptr noundef %40, i32 noundef %42)
  store i32 %43, ptr %18, align 4, !tbaa !27
  br label %52

44:                                               ; preds = %35
  %45 = load ptr, ptr %17, align 8, !tbaa !24
  %46 = load i32, ptr %16, align 4, !tbaa !27
  %47 = load ptr, ptr %13, align 8, !tbaa !24
  %48 = load i64, ptr %14, align 8, !tbaa !25
  %49 = trunc i64 %48 to i32
  %50 = call i32 @RSA_padding_add_none(ptr noundef %45, i32 noundef %46, ptr noundef %47, i32 noundef %49)
  store i32 %50, ptr %18, align 4, !tbaa !27
  br label %52

51:                                               ; preds = %35
  call void @ERR_put_error(i32 noundef 4, i32 noundef 0, i32 noundef 143, ptr noundef @.str, i32 noundef 338)
  br label %69

52:                                               ; preds = %44, %37
  %53 = load i32, ptr %18, align 4, !tbaa !27
  %54 = icmp sle i32 %53, 0
  br i1 %54, label %55, label %56

55:                                               ; preds = %52
  br label %69

56:                                               ; preds = %52
  %57 = load ptr, ptr %9, align 8, !tbaa !6
  %58 = load ptr, ptr %11, align 8, !tbaa !24
  %59 = load ptr, ptr %17, align 8, !tbaa !24
  %60 = load i32, ptr %16, align 4, !tbaa !27
  %61 = zext i32 %60 to i64
  %62 = call i32 @RSA_private_transform(ptr noundef %57, ptr noundef %58, ptr noundef %59, i64 noundef %61)
  %63 = icmp ne i32 %62, 0
  br i1 %63, label %65, label %64

64:                                               ; preds = %56
  br label %69

65:                                               ; preds = %56
  %66 = load i32, ptr %16, align 4, !tbaa !27
  %67 = zext i32 %66 to i64
  %68 = load ptr, ptr %10, align 8, !tbaa !22
  store i64 %67, ptr %68, align 8, !tbaa !25
  store i32 1, ptr %19, align 4, !tbaa !27
  br label %69

69:                                               ; preds = %65, %64, %55, %51, %34
  %70 = load ptr, ptr %17, align 8, !tbaa !24
  %71 = icmp ne ptr %70, null
  br i1 %71, label %72, label %77

72:                                               ; preds = %69
  %73 = load ptr, ptr %17, align 8, !tbaa !24
  %74 = load i32, ptr %16, align 4, !tbaa !27
  %75 = zext i32 %74 to i64
  call void @OPENSSL_cleanse(ptr noundef %73, i64 noundef %75)
  %76 = load ptr, ptr %17, align 8, !tbaa !24
  call void @free(ptr noundef %76) #7
  br label %77

77:                                               ; preds = %72, %69
  %78 = load i32, ptr %19, align 4, !tbaa !27
  store i32 %78, ptr %8, align 4
  store i32 1, ptr %20, align 4
  br label %79

79:                                               ; preds = %77, %27
  call void @llvm.lifetime.end.p0(i64 4, ptr %19) #7
  call void @llvm.lifetime.end.p0(i64 4, ptr %18) #7
  call void @llvm.lifetime.end.p0(i64 8, ptr %17) #7
  call void @llvm.lifetime.end.p0(i64 4, ptr %16) #7
  %80 = load i32, ptr %8, align 4
  ret i32 %80
}