; Function Attrs: nounwind uwtable
define hidden range(i32 0, 2) i32 @rsa_default_sign_raw(ptr noundef %0, ptr noundef writeonly captures(none) %1, ptr noundef %2, i64 noundef %3, ptr noundef %4, i64 noundef %5, i32 noundef %6) local_unnamed_addr #0 {
  %8 = tail call i32 @RSA_size(ptr noundef %0) #8
  %9 = zext i32 %8 to i64
  %10 = icmp ult i64 %3, %9
  br i1 %10, label %11, label %12

11:                                               ; preds = %7
  tail call void @ERR_put_error(i32 noundef 4, i32 noundef 0, i32 noundef 135, ptr noundef nonnull @.str, i32 noundef 320) #8
  br label %30

12:                                               ; preds = %7
  %13 = tail call noalias ptr @malloc(i64 noundef %9) #9
  %14 = icmp eq ptr %13, null
  br i1 %14, label %28, label %15

15:                                               ; preds = %12
  switch i32 %6, label %22 [
    i32 1, label %16
    i32 3, label %19
  ]

16:                                               ; preds = %15
  %17 = trunc i64 %5 to i32
  %18 = tail call i32 @RSA_padding_add_PKCS1_type_1(ptr noundef nonnull %13, i32 noundef %8, ptr noundef %4, i32 noundef %17) #8
  br label %23

19:                                               ; preds = %15
  %20 = trunc i64 %5 to i32
  %21 = tail call i32 @RSA_padding_add_none(ptr noundef nonnull %13, i32 noundef %8, ptr noundef %4, i32 noundef %20) #8
  br label %23

22:                                               ; preds = %15
  tail call void @ERR_put_error(i32 noundef 4, i32 noundef 0, i32 noundef 143, ptr noundef nonnull @.str, i32 noundef 338) #8
  br label %29

23:                                               ; preds = %19, %16
  %.026 = phi i32 [ %21, %19 ], [ %18, %16 ]
  %24 = icmp slt i32 %.026, 1
  br i1 %24, label %29, label %25

25:                                               ; preds = %23
  %26 = tail call i32 @RSA_private_transform(ptr noundef %0, ptr noundef %2, ptr noundef nonnull %13, i64 noundef %9) #8
  %.not = icmp eq i32 %26, 0
  br i1 %.not, label %29, label %27

27:                                               ; preds = %25
  store i64 %9, ptr %1, align 8, !tbaa !22
  br label %29

28:                                               ; preds = %12
  tail call void @ERR_put_error(i32 noundef 4, i32 noundef 0, i32 noundef 65, ptr noundef nonnull @.str, i32 noundef 326) #8
  br label %30

29:                                               ; preds = %25, %23, %27, %22
  %.0.ph = phi i32 [ 0, %25 ], [ 1, %27 ], [ 0, %23 ], [ 0, %22 ]
  tail call void @OPENSSL_cleanse(ptr noundef nonnull %13, i64 noundef %9) #8
  tail call void @free(ptr noundef nonnull %13) #8
  br label %30

30:                                               ; preds = %28, %29, %11
  %.027 = phi i32 [ 0, %11 ], [ %.0.ph, %29 ], [ 0, %28 ]
  ret i32 %.027
}